target datalayout = "e-m:e-p270:32:32-p271:32:32-p272:64:64-i64:64-i128:128-f80:128-n8:16:32:64-S128"
target triple = "x86_64-pc-linux-gnu"

%struct.anon = type { [10 x [10 x ptr]], [10 x [10 x ptr]], [10 x [10 x ptr]], double, double, double, double, double, double, double }

; Function Attrs: nounwind uwtable
define internal i32 @PSolve(double noundef %0, ptr noundef %1, ptr noundef %2, ptr noundef %3, ptr noundef %4, double noundef %5, double noundef %6, i32 noundef %7, ptr noundef %8) #0 {
  %10 = alloca double, align 8
  %11 = alloca ptr, align 8
  %12 = alloca ptr, align 8
  %13 = alloca ptr, align 8
  %14 = alloca ptr, align 8
  %15 = alloca double, align 8
  %16 = alloca double, align 8
  %17 = alloca i32, align 4
  %18 = alloca ptr, align 8
  %19 = alloca ptr, align 8
  %20 = alloca ptr, align 8
  %21 = alloca i32, align 4
  %22 = alloca i32, align 4
  %23 = alloca ptr, align 8
  %24 = alloca ptr, align 8
  %25 = alloca ptr, align 8
  store double %0, ptr %10, align 8, !tbaa !26
  store ptr %1, ptr %11, align 8, !tbaa !13
  store ptr %2, ptr %12, align 8, !tbaa !13
  store ptr %3, ptr %13, align 8, !tbaa !13
  store ptr %4, ptr %14, align 8, !tbaa !13
  store double %5, ptr %15, align 8, !tbaa !26
  store double %6, ptr %16, align 8, !tbaa !26
  store i32 %7, ptr %17, align 4, !tbaa !4
  store ptr %8, ptr %18, align 8, !tbaa !15
  call void @llvm.lifetime.start.p0(i64 8, ptr %19) #7
  call void @llvm.lifetime.start.p0(i64 8, ptr %20) #7
  call void @llvm.lifetime.start.p0(i64 4, ptr %21) #7
  call void @llvm.lifetime.start.p0(i64 4, ptr %22) #7
  call void @llvm.lifetime.start.p0(i64 8, ptr %23) #7
  call void @llvm.lifetime.start.p0(i64 8, ptr %24) #7
  call void @llvm.lifetime.start.p0(i64 8, ptr %25) #7
  %26 = load ptr, ptr %18, align 8, !tbaa !15
  store ptr %26, ptr %25, align 8, !tbaa !15
  %27 = load ptr, ptr %25, align 8, !tbaa !15
  %28 = getelementptr inbounds nuw %struct.anon, ptr %27, i32 0, i32 0
  %29 = getelementptr inbounds [10 x [10 x ptr]], ptr %28, i64 0, i64 0
  store ptr %29, ptr %19, align 8, !tbaa !44
  %30 = load ptr, ptr %25, align 8, !tbaa !15
  %31 = getelementptr inbounds nuw %struct.anon, ptr %30, i32 0, i32 2
  %32 = getelementptr inbounds [10 x [10 x ptr]], ptr %31, i64 0, i64 0
  store ptr %32, ptr %20, align 8, !tbaa !46
  %33 = load ptr, ptr %14, align 8, !tbaa !13
  %34 = call ptr @N_VGetArrayPointer(ptr noundef %33)
  store ptr %34, ptr %23, align 8, !tbaa !41
  %35 = load ptr, ptr %13, align 8, !tbaa !13
  %36 = load ptr, ptr %14, align 8, !tbaa !13
  call void @N_VScale(double noundef 1.000000e+00, ptr noundef %35, ptr noundef %36)
  store i32 0, ptr %21, align 4, !tbaa !4
  br label %37

37:                                               ; preds = %75, %9
  %38 = load i32, ptr %21, align 4, !tbaa !4
  %39 = icmp slt i32 %38, 10
  br i1 %39, label %40, label %78

40:                                               ; preds = %37
  store i32 0, ptr %22, align 4, !tbaa !4
  br label %41

41:                                               ; preds = %71, %40
  %42 = load i32, ptr %22, align 4, !tbaa !4
  %43 = icmp slt i32 %42, 10
  br i1 %43, label %44, label %74

44:                                               ; preds = %41
  %45 = load ptr, ptr %23, align 8, !tbaa !41
  %46 = load i32, ptr %21, align 4, !tbaa !4
  %47 = mul nsw i32 %46, 2
  %48 = add nsw i32 0, %47
  %49 = load i32, ptr %22, align 4, !tbaa !4
  %50 = mul nsw i32 %49, 20
  %51 = add nsw i32 %48, %50
  %52 = sext i32 %51 to i64
  %53 = getelementptr inbounds double, ptr %45, i64 %52
  store ptr %53, ptr %24, align 8, !tbaa !41
  %54 = load ptr, ptr %19, align 8, !tbaa !44
  %55 = load i32, ptr %21, align 4, !tbaa !4
  %56 = sext i32 %55 to i64
  %57 = getelementptr inbounds [10 x ptr], ptr %54, i64 %56
  %58 = load i32, ptr %22, align 4, !tbaa !4
  %59 = sext i32 %58 to i64
  %60 = getelementptr inbounds [10 x ptr], ptr %57, i64 0, i64 %59
  %61 = load ptr, ptr %60, align 8, !tbaa !33
  %62 = load ptr, ptr %20, align 8, !tbaa !46
  %63 = load i32, ptr %21, align 4, !tbaa !4
  %64 = sext i32 %63 to i64
  %65 = getelementptr inbounds [10 x ptr], ptr %62, i64 %64
  %66 = load i32, ptr %22, align 4, !tbaa !4
  %67 = sext i32 %66 to i64
  %68 = getelementptr inbounds [10 x ptr], ptr %65, i64 0, i64 %67
  %69 = load ptr, ptr %68, align 8, !tbaa !35
  %70 = load ptr, ptr %24, align 8, !tbaa !41
  call void @SUNDlsMat_denseGETRS(ptr noundef %61, i64 noundef 2, ptr noundef %69, ptr noundef %70)
  br label %71

71:                                               ; preds = %44
  %72 = load i32, ptr %22, align 4, !tbaa !4
  %73 = add nsw i32 %72, 1
  store i32 %73, ptr %22, align 4, !tbaa !4
  br label %41

74:                                               ; preds = %41
  br label %75

75:                                               ; preds = %74
  %76 = load i32, ptr %21, align 4, !tbaa !4
  %77 = add nsw i32 %76, 1
  store i32 %77, ptr %21, align 4, !tbaa !4
  br label %37

78:                                               ; preds = %37
  call void @llvm.lifetime.end.p0(i64 8, ptr %25) #7
  call void @llvm.lifetime.end.p0(i64 8, ptr %24) #7
  call void @llvm.lifetime.end.p0(i64 8, ptr %23) #7
  call void @llvm.lifetime.end.p0(i64 4, ptr %22) #7
  call void @llvm.lifetime.end.p0(i64 4, ptr %21) #7
  call void @llvm.lifetime.end.p0(i64 8, ptr %20) #7
  call void @llvm.lifetime.end.p0(i64 8, ptr %19) #7
  ret i32 0
}