; Function Attrs: nounwind uwtable
define internal noundef i32 @PSolve(double %0, ptr readnone captures(none) %1, ptr readnone captures(none) %2, ptr noundef %3, ptr noundef %4, double %5, double %6, i32 %7, ptr noundef readonly captures(none) %8) #0 {
  %10 = getelementptr inbounds nuw i8, ptr %8, i64 1600
  %11 = tail call ptr @N_VGetArrayPointer(ptr noundef %4) #10
  tail call void @N_VScale(double noundef 1.000000e+00, ptr noundef %3, ptr noundef %4) #10
  br label %.preheader

.preheader:                                       ; preds = %9, %17
  %indvars.iv23 = phi i64 [ 0, %9 ], [ %indvars.iv.next24, %17 ]
  %.idx27 = shl nsw i64 %indvars.iv23, 4
  %invariant.gep = getelementptr inbounds nuw i8, ptr %11, i64 %.idx27
  br label %12

12:                                               ; preds = %.preheader, %12
  %indvars.iv = phi i64 [ 0, %.preheader ], [ %indvars.iv.next, %12 ]
  %.idx = mul nuw nsw i64 %indvars.iv, 160
  %gep = getelementptr inbounds nuw i8, ptr %invariant.gep, i64 %.idx
  %13 = getelementptr inbounds nuw [10 x ptr], ptr %8, i64 %indvars.iv23, i64 %indvars.iv
  %14 = load ptr, ptr %13, align 8, !tbaa !25
  %15 = getelementptr inbounds nuw [10 x ptr], ptr %10, i64 %indvars.iv23, i64 %indvars.iv
  %16 = load ptr, ptr %15, align 8, !tbaa !27
  tail call void @SUNDlsMat_denseGETRS(ptr noundef %14, i64 noundef 2, ptr noundef %16, ptr noundef %gep) #10
  %indvars.iv.next = add nuw nsw i64 %indvars.iv, 1
  %exitcond.not = icmp eq i64 %indvars.iv.next, 10
  br i1 %exitcond.not, label %17, label %12

17:                                               ; preds = %12
  %indvars.iv.next24 = add nuw nsw i64 %indvars.iv23, 1
  %exitcond26.not = icmp eq i64 %indvars.iv.next24, 10
  br i1 %exitcond26.not, label %18, label %.preheader

18:                                               ; preds = %17
  ret i32 0
}